target datalayout = "e-m:e-p270:32:32-p271:32:32-p272:64:64-i64:64-i128:128-f80:128-n8:16:32:64-S128"
target triple = "x86_64-pc-linux-gnu"

%struct.ERR_string_data_st = type { i64, ptr }

@BIO_str_reasons = internal constant [48 x %struct.ERR_string_data_st] [%struct.ERR_string_data_st { i64 268435556, ptr @.str }, %struct.ERR_string_data_st { i64 268435597, ptr @.str.1 }, %struct.ERR_string_data_st { i64 268435585, ptr @.str.2 }, %struct.ERR_string_data_st { i64 268435557, ptr @.str.3 }, %struct.ERR_string_data_st { i64 268435580, ptr @.str.4 }, %struct.ERR_string_data_st { i64 268435559, ptr @.str.5 }, %struct.ERR_string_data_st { i64 268435603, ptr @.str.6 }, %struct.ERR_string_data_st { i64 268435563, ptr @.str.7 }, %struct.ERR_string_data_st { i64 268435588, ptr @.str.8 }, %struct.ERR_string_data_st { i64 268435589, ptr @.str.9 }, %struct.ERR_string_data_st { i64 268435590, ptr @.str.10 }, %struct.ERR_string_data_st { i64 268435581, ptr @.str.11 }, %struct.ERR_string_data_st { i64 268435591, ptr @.str.12 }, %struct.ERR_string_data_st { i64 268435579, ptr @.str.13 }, %struct.ERR_string_data_st { i64 268435558, ptr @.str.14 }, %struct.ERR_string_data_st { i64 268435592, ptr @.str.15 }, %struct.ERR_string_data_st { i64 268435598, ptr @.str.16 }, %struct.ERR_string_data_st { i64 268435586, ptr @.str.17 }, %struct.ERR_string_data_st { i64 268435566, ptr @.str.18 }, %struct.ERR_string_data_st { i64 268435599, ptr @.str.19 }, %struct.ERR_string_data_st { i64 268435600, ptr @.str.20 }, %struct.ERR_string_data_st { i64 268435569, ptr @.str.21 }, %struct.ERR_string_data_st { i64 268435584, ptr @.str.22 }, %struct.ERR_string_data_st { i64 268435606, ptr @.str.23 }, %struct.ERR_string_data_st { i64 268435562, ptr @.str.24 }, %struct.ERR_string_data_st { i64 268435564, ptr @.str.25 }, %struct.ERR_string_data_st { i64 268435560, ptr @.str.26 }, %struct.ERR_string_data_st { i64 268435561, ptr @.str.27 }, %struct.ERR_string_data_st { i64 268435573, ptr @.str.28 }, %struct.ERR_string_data_st { i64 268435574, ptr @.str.29 }, %struct.ERR_string_data_st { i64 268435593, ptr @.str.30 }, %struct.ERR_string_data_st { i64 268435575, ptr @.str.31 }, %struct.ERR_string_data_st { i64 268435594, ptr @.str.32 }, %struct.ERR_string_data_st { i64 268435595, ptr @.str.33 }, %struct.ERR_string_data_st { i64 268435565, ptr @.str.34 }, %struct.ERR_string_data_st { i64 268435601, ptr @.str.35 }, %struct.ERR_string_data_st { i64 268435576, ptr @.str.36 }, %struct.ERR_string_data_st { i64 268435596, ptr @.str.37 }, %struct.ERR_string_data_st { i64 268435602, ptr @.str.38 }, %struct.ERR_string_data_st { i64 268435577, ptr @.str.39 }, %struct.ERR_string_data_st { i64 268435587, ptr @.str.40 }, %struct.ERR_string_data_st { i64 268435582, ptr @.str.41 }, %struct.ERR_string_data_st { i64 268435578, ptr @.str.42 }, %struct.ERR_string_data_st { i64 268435567, ptr @.str.43 }, %struct.ERR_string_data_st { i64 268435607, ptr @.str.44 }, %struct.ERR_string_data_st { i64 268435568, ptr @.str.45 }, %struct.ERR_string_data_st { i64 268435606, ptr @.str.23 }, %struct.ERR_string_data_st zeroinitializer], align 16
@.str = private unnamed_addr constant [13 x i8] c"accept error\00", align 1
@.str.1 = private unnamed_addr constant [29 x i8] c"addrinfo addr is not af inet\00", align 1
@.str.2 = private unnamed_addr constant [26 x i8] c"ambiguous host or service\00", align 1
@.str.3 = private unnamed_addr constant [15 x i8] c"bad fopen mode\00", align 1
@.str.4 = private unnamed_addr constant [12 x i8] c"broken pipe\00", align 1
@.str.5 = private unnamed_addr constant [14 x i8] c"connect error\00", align 1
@.str.6 = private unnamed_addr constant [16 x i8] c"connect timeout\00", align 1
@.str.7 = private unnamed_addr constant [34 x i8] c"gethostbyname addr is not af inet\00", align 1
@.str.8 = private unnamed_addr constant [18 x i8] c"getsockname error\00", align 1
@.str.9 = private unnamed_addr constant [30 x i8] c"getsockname truncated address\00", align 1
@.str.10 = private unnamed_addr constant [17 x i8] c"getting socktype\00", align 1
@.str.11 = private unnamed_addr constant [17 x i8] c"invalid argument\00", align 1
@.str.12 = private unnamed_addr constant [15 x i8] c"invalid socket\00", align 1
@.str.13 = private unnamed_addr constant [7 x i8] c"in use\00", align 1
@.str.14 = private unnamed_addr constant [16 x i8] c"length too long\00", align 1
@.str.15 = private unnamed_addr constant [15 x i8] c"listen v6 only\00", align 1
@.str.16 = private unnamed_addr constant [24 x i8] c"lookup returned nothing\00", align 1
@.str.17 = private unnamed_addr constant [26 x i8] c"malformed host or service\00", align 1
@.str.18 = private unnamed_addr constant [19 x i8] c"nbio connect error\00", align 1
@.str.19 = private unnamed_addr constant [36 x i8] c"no accept addr or service specified\00", align 1
@.str.20 = private unnamed_addr constant [33 x i8] c"no hostname or service specified\00", align 1
@.str.21 = private unnamed_addr constant [16 x i8] c"no port defined\00", align 1
@.str.22 = private unnamed_addr constant [13 x i8] c"no such file\00", align 1
@.str.23 = private unnamed_addr constant [14 x i8] c"port mismatch\00", align 1
@.str.24 = private unnamed_addr constant [13 x i8] c"tfo disabled\00", align 1
@.str.25 = private unnamed_addr constant [22 x i8] c"tfo no kernel support\00", align 1
@.str.26 = private unnamed_addr constant [15 x i8] c"transfer error\00", align 1
@.str.27 = private unnamed_addr constant [17 x i8] c"transfer timeout\00", align 1
@.str.28 = private unnamed_addr constant [22 x i8] c"unable to bind socket\00", align 1
@.str.29 = private unnamed_addr constant [24 x i8] c"unable to create socket\00", align 1
@.str.30 = private unnamed_addr constant [20 x i8] c"unable to keepalive\00", align 1
@.str.31 = private unnamed_addr constant [24 x i8] c"unable to listen socket\00", align 1
@.str.32 = private unnamed_addr constant [18 x i8] c"unable to nodelay\00", align 1
@.str.33 = private unnamed_addr constant [20 x i8] c"unable to reuseaddr\00", align 1
@.str.34 = private unnamed_addr constant [14 x i8] c"unable to tfo\00", align 1
@.str.35 = private unnamed_addr constant [22 x i8] c"unavailable ip family\00", align 1
@.str.36 = private unnamed_addr constant [14 x i8] c"uninitialized\00", align 1
@.str.37 = private unnamed_addr constant [18 x i8] c"unknown info type\00", align 1
@.str.38 = private unnamed_addr constant [22 x i8] c"unsupported ip family\00", align 1
@.str.39 = private unnamed_addr constant [19 x i8] c"unsupported method\00", align 1
@.str.40 = private unnamed_addr constant [28 x i8] c"unsupported protocol family\00", align 1
@.str.41 = private unnamed_addr constant [23 x i8] c"write to read only BIO\00", align 1
@.str.42 = private unnamed_addr constant [11 x i8] c"WSAStartup\00", align 1
@.str.43 = private unnamed_addr constant [28 x i8] c"local address not available\00", align 1
@.str.44 = private unnamed_addr constant [27 x i8] c"peer address not available\00", align 1
@.str.45 = private unnamed_addr constant [29 x i8] c"non-fatal or transient error\00", align 1

; Function Attrs: nounwind uwtable
define i32 @ossl_err_load_BIO_strings() #0 {
  %1 = call ptr @ERR_reason_error_string(i64 noundef 268435556)
  %2 = icmp eq ptr %1, null
  br i1 %2, label %3, label %5

3:                                                ; preds = %0
  %4 = call i32 @ERR_load_strings_const(ptr noundef @BIO_str_reasons)
  br label %5

5:                                                ; preds = %3, %0
  ret i32 1
}

declare ptr @ERR_reason_error_string(i64 noundef) #1

declare i32 @ERR_load_strings_const(ptr noundef) #1

; Function Attrs: nounwind uwtable
define i32 @BIO_err_is_non_fatal(i32 noundef %0) #0 {
  %2 = alloca i32, align 4
  %3 = alloca i32, align 4
  store i32 %0, ptr %3, align 4, !tbaa !3
  %4 = load i32, ptr %3, align 4, !tbaa !3
  %5 = and i32 %4, -2147483648
  %6 = icmp ne i32 %5, 0
  br i1 %6, label %7, label %12

7:                                                ; preds = %1
  %8 = load i32, ptr %3, align 4, !tbaa !3
  %9 = zext i32 %8 to i64
  %10 = call i32 @ERR_GET_REASON(i64 noundef %9)
  %11 = call i32 @BIO_sock_non_fatal_error(i32 noundef %10)
  store i32 %11, ptr %2, align 4
  br label %24

12:                                               ; preds = %1
  %13 = load i32, ptr %3, align 4, !tbaa !3
  %14 = zext i32 %13 to i64
  %15 = call i32 @ERR_GET_LIB(i64 noundef %14)
  %16 = icmp eq i32 %15, 32
  br i1 %16, label %17, label %23

17:                                               ; preds = %12
  %18 = load i32, ptr %3, align 4, !tbaa !3
  %19 = zext i32 %18 to i64
  %20 = call i32 @ERR_GET_REASON(i64 noundef %19)
  %21 = icmp eq i32 %20, 112
  br i1 %21, label %22, label %23

22:                                               ; preds = %17
  store i32 1, ptr %2, align 4
  br label %24

23:                                               ; preds = %17, %12
  store i32 0, ptr %2, align 4
  br label %24

24:                                               ; preds = %23, %22, %7
  %25 = load i32, ptr %2, align 4
  ret i32 %25
}

declare i32 @BIO_sock_non_fatal_error(i32 noundef) #1

; Function Attrs: inlinehint nounwind uwtable
define internal i32 @ERR_GET_REASON(i64 noundef %0) #2 {
  %2 = alloca i32, align 4
  %3 = alloca i64, align 8
  store i64 %0, ptr %3, align 8, !tbaa !7
  %4 = load i64, ptr %3, align 8, !tbaa !7
  %5 = and i64 %4, 2147483648
  %6 = icmp ne i64 %5, 0
  br i1 %6, label %7, label %11

7:                                                ; preds = %1
  %8 = load i64, ptr %3, align 8, !tbaa !7
  %9 = and i64 %8, 2147483647
  %10 = trunc i64 %9 to i32
  store i32 %10, ptr %2, align 4
  br label %15

11:                                               ; preds = %1
  %12 = load i64, ptr %3, align 8, !tbaa !7
  %13 = and i64 %12, 8388607
  %14 = trunc i64 %13 to i32
  store i32 %14, ptr %2, align 4
  br label %15

15:                                               ; preds = %11, %7
  %16 = load i32, ptr %2, align 4
  ret i32 %16
}

; Function Attrs: inlinehint nounwind uwtable
define internal i32 @ERR_GET_LIB(i64 noundef %0) #2 {
  %2 = alloca i32, align 4
  %3 = alloca i64, align 8
  store i64 %0, ptr %3, align 8, !tbaa !7
  %4 = load i64, ptr %3, align 8, !tbaa !7
  %5 = and i64 %4, 2147483648
  %6 = icmp ne i64 %5, 0
  br i1 %6, label %7, label %8

7:                                                ; preds = %1
  store i32 2, ptr %2, align 4
  br label %13

8:                                                ; preds = %1
  %9 = load i64, ptr %3, align 8, !tbaa !7
  %10 = lshr i64 %9, 23
  %11 = and i64 %10, 255
  %12 = trunc i64 %11 to i32
  store i32 %12, ptr %2, align 4
  br label %13

13:                                               ; preds = %8, %7
  %14 = load i32, ptr %2, align 4
  ret i32 %14
}


!llvm.module.flags = !{!0, !1, !2}

!0 = !{i32 1, !"wchar_size", i32 4}
!1 = !{i32 8, !"PIC Level", i32 2}
!2 = !{i32 7, !"uwtable", i32 2}
!3 = !{!4, !4, i64 0}
!4 = !{!"int", !5, i64 0}
!5 = !{!"omnipotent char", !6, i64 0}
!6 = !{!"Simple C/C++ TBAA"}
!7 = !{!8, !8, i64 0}
!8 = !{!"long", !5, i64 0}
